target datalayout = "e-m:e-p270:32:32-p271:32:32-p272:64:64-i64:64-i128:128-f80:128-n8:16:32:64-S128"
target triple = "x86_64-pc-linux-gnu"

@.str.3 = private unnamed_addr constant [3 x i8] c"%u\00", align 1
@bb_state_string.buf = internal global [16 x i8] zeroinitializer, align 16
@.str.212 = private unnamed_addr constant [8 x i8] c"pending\00", align 1
@.str.213 = private unnamed_addr constant [11 x i8] c"allocating\00", align 1
@.str.214 = private unnamed_addr constant [10 x i8] c"allocated\00", align 1
@.str.215 = private unnamed_addr constant [9 x i8] c"deleting\00", align 1
@.str.216 = private unnamed_addr constant [8 x i8] c"deleted\00", align 1
@.str.217 = private unnamed_addr constant [11 x i8] c"staging-in\00", align 1
@.str.218 = private unnamed_addr constant [10 x i8] c"staged-in\00", align 1
@.str.219 = private unnamed_addr constant [8 x i8] c"pre-run\00", align 1
@.str.220 = private unnamed_addr constant [13 x i8] c"alloc-revoke\00", align 1
@.str.221 = private unnamed_addr constant [8 x i8] c"running\00", align 1
@.str.222 = private unnamed_addr constant [10 x i8] c"suspended\00", align 1
@.str.223 = private unnamed_addr constant [9 x i8] c"post-run\00", align 1
@.str.224 = private unnamed_addr constant [12 x i8] c"staging-out\00", align 1
@.str.225 = private unnamed_addr constant [11 x i8] c"staged-out\00", align 1
@.str.226 = private unnamed_addr constant [9 x i8] c"teardown\00", align 1
@.str.227 = private unnamed_addr constant [14 x i8] c"teardown-fail\00", align 1
@.str.228 = private unnamed_addr constant [9 x i8] c"complete\00", align 1

; Function Attrs: nounwind uwtable
define dso_local ptr @bb_state_string(i16 noundef zeroext %0) #0 {
  %2 = alloca ptr, align 8
  %3 = alloca i16, align 2
  store i16 %0, ptr %3, align 2
  %4 = load i16, ptr %3, align 2
  %5 = zext i16 %4 to i32
  %6 = icmp eq i32 %5, 0
  br i1 %6, label %7, label %8

7:                                                ; preds = %1
  store ptr @.str.212, ptr %2, align 8
  br label %92

8:                                                ; preds = %1
  %9 = load i16, ptr %3, align 2
  %10 = zext i16 %9 to i32
  %11 = icmp eq i32 %10, 1
  br i1 %11, label %12, label %13

12:                                               ; preds = %8
  store ptr @.str.213, ptr %2, align 8
  br label %92

13:                                               ; preds = %8
  %14 = load i16, ptr %3, align 2
  %15 = zext i16 %14 to i32
  %16 = icmp eq i32 %15, 2
  br i1 %16, label %17, label %18

17:                                               ; preds = %13
  store ptr @.str.214, ptr %2, align 8
  br label %92

18:                                               ; preds = %13
  %19 = load i16, ptr %3, align 2
  %20 = zext i16 %19 to i32
  %21 = icmp eq i32 %20, 5
  br i1 %21, label %22, label %23

22:                                               ; preds = %18
  store ptr @.str.215, ptr %2, align 8
  br label %92

23:                                               ; preds = %18
  %24 = load i16, ptr %3, align 2
  %25 = zext i16 %24 to i32
  %26 = icmp eq i32 %25, 6
  br i1 %26, label %27, label %28

27:                                               ; preds = %23
  store ptr @.str.216, ptr %2, align 8
  br label %92

28:                                               ; preds = %23
  %29 = load i16, ptr %3, align 2
  %30 = zext i16 %29 to i32
  %31 = icmp eq i32 %30, 17
  br i1 %31, label %32, label %33

32:                                               ; preds = %28
  store ptr @.str.217, ptr %2, align 8
  br label %92

33:                                               ; preds = %28
  %34 = load i16, ptr %3, align 2
  %35 = zext i16 %34 to i32
  %36 = icmp eq i32 %35, 18
  br i1 %36, label %37, label %38

37:                                               ; preds = %33
  store ptr @.str.218, ptr %2, align 8
  br label %92

38:                                               ; preds = %33
  %39 = load i16, ptr %3, align 2
  %40 = zext i16 %39 to i32
  %41 = icmp eq i32 %40, 24
  br i1 %41, label %42, label %43

42:                                               ; preds = %38
  store ptr @.str.219, ptr %2, align 8
  br label %92

43:                                               ; preds = %38
  %44 = load i16, ptr %3, align 2
  %45 = zext i16 %44 to i32
  %46 = icmp eq i32 %45, 26
  br i1 %46, label %47, label %48

47:                                               ; preds = %43
  store ptr @.str.220, ptr %2, align 8
  br label %92

48:                                               ; preds = %43
  %49 = load i16, ptr %3, align 2
  %50 = zext i16 %49 to i32
  %51 = icmp eq i32 %50, 33
  br i1 %51, label %52, label %53

52:                                               ; preds = %48
  store ptr @.str.221, ptr %2, align 8
  br label %92

53:                                               ; preds = %48
  %54 = load i16, ptr %3, align 2
  %55 = zext i16 %54 to i32
  %56 = icmp eq i32 %55, 34
  br i1 %56, label %57, label %58

57:                                               ; preds = %53
  store ptr @.str.222, ptr %2, align 8
  br label %92

58:                                               ; preds = %53
  %59 = load i16, ptr %3, align 2
  %60 = zext i16 %59 to i32
  %61 = icmp eq i32 %60, 41
  br i1 %61, label %62, label %63

62:                                               ; preds = %58
  store ptr @.str.223, ptr %2, align 8
  br label %92

63:                                               ; preds = %58
  %64 = load i16, ptr %3, align 2
  %65 = zext i16 %64 to i32
  %66 = icmp eq i32 %65, 49
  br i1 %66, label %67, label %68

67:                                               ; preds = %63
  store ptr @.str.224, ptr %2, align 8
  br label %92

68:                                               ; preds = %63
  %69 = load i16, ptr %3, align 2
  %70 = zext i16 %69 to i32
  %71 = icmp eq i32 %70, 50
  br i1 %71, label %72, label %73

72:                                               ; preds = %68
  store ptr @.str.225, ptr %2, align 8
  br label %92

73:                                               ; preds = %68
  %74 = load i16, ptr %3, align 2
  %75 = zext i16 %74 to i32
  %76 = icmp eq i32 %75, 65
  br i1 %76, label %77, label %78

77:                                               ; preds = %73
  store ptr @.str.226, ptr %2, align 8
  br label %92

78:                                               ; preds = %73
  %79 = load i16, ptr %3, align 2
  %80 = zext i16 %79 to i32
  %81 = icmp eq i32 %80, 67
  br i1 %81, label %82, label %83

82:                                               ; preds = %78
  store ptr @.str.227, ptr %2, align 8
  br label %92

83:                                               ; preds = %78
  %84 = load i16, ptr %3, align 2
  %85 = zext i16 %84 to i32
  %86 = icmp eq i32 %85, 69
  br i1 %86, label %87, label %88

87:                                               ; preds = %83
  store ptr @.str.228, ptr %2, align 8
  br label %92

88:                                               ; preds = %83
  %89 = load i16, ptr %3, align 2
  %90 = zext i16 %89 to i32
  %91 = call i32 (ptr, i64, ptr, ...) @snprintf(ptr noundef @bb_state_string.buf, i64 noundef 16, ptr noundef @.str.3, i32 noundef %90) #11
  store ptr @bb_state_string.buf, ptr %2, align 8
  br label %92

92:                                               ; preds = %88, %87, %82, %77, %72, %67, %62, %57, %52, %47, %42, %37, %32, %27, %22, %17, %12, %7
  %93 = load ptr, ptr %2, align 8
  ret ptr %93
}