; Function Attrs: nofree nounwind uwtable
define dso_local noundef nonnull ptr @bb_state_string(i16 noundef zeroext %0) local_unnamed_addr #15 {
  switch i16 %0, label %18 [
    i16 0, label %21
    i16 1, label %2
    i16 2, label %3
    i16 5, label %4
    i16 6, label %5
    i16 17, label %6
    i16 18, label %7
    i16 24, label %8
    i16 26, label %9
    i16 33, label %10
    i16 34, label %11
    i16 41, label %12
    i16 49, label %13
    i16 50, label %14
    i16 65, label %15
    i16 67, label %16
    i16 69, label %17
  ]

2:                                                ; preds = %1
  br label %21

3:                                                ; preds = %1
  br label %21

4:                                                ; preds = %1
  br label %21

5:                                                ; preds = %1
  br label %21

6:                                                ; preds = %1
  br label %21

7:                                                ; preds = %1
  br label %21

8:                                                ; preds = %1
  br label %21

9:                                                ; preds = %1
  br label %21

10:                                               ; preds = %1
  br label %21

11:                                               ; preds = %1
  br label %21

12:                                               ; preds = %1
  br label %21

13:                                               ; preds = %1
  br label %21

14:                                               ; preds = %1
  br label %21

15:                                               ; preds = %1
  br label %21

16:                                               ; preds = %1
  br label %21

17:                                               ; preds = %1
  br label %21

18:                                               ; preds = %1
  %19 = zext i16 %0 to i32
  %20 = tail call i32 (ptr, i64, ptr, ...) @snprintf(ptr noundef nonnull dereferenceable(1) @bb_state_string.buf, i64 noundef 16, ptr noundef nonnull @.str.3, i32 noundef %19) #24
  br label %21

21:                                               ; preds = %1, %18, %17, %16, %15, %14, %13, %12, %11, %10, %9, %8, %7, %6, %5, %4, %3, %2
  %.0 = phi ptr [ @.str.213, %2 ], [ @.str.214, %3 ], [ @.str.215, %4 ], [ @.str.216, %5 ], [ @.str.217, %6 ], [ @.str.218, %7 ], [ @.str.219, %8 ], [ @.str.220, %9 ], [ @.str.221, %10 ], [ @.str.222, %11 ], [ @.str.223, %12 ], [ @.str.224, %13 ], [ @.str.225, %14 ], [ @.str.226, %15 ], [ @.str.227, %16 ], [ @.str.228, %17 ], [ @bb_state_string.buf, %18 ], [ @.str.212, %1 ]
  ret ptr %.0
}